; Function Attrs: nofree norecurse nosync nounwind memory(readwrite, inaccessiblemem: none) uwtable
define void @Fxu_MatrixRingCubesUnmark(ptr noundef captures(none) %0) local_unnamed_addr #4 {
  %2 = getelementptr inbounds nuw i8, ptr %0, i64 144
  %3 = load ptr, ptr %2, align 8, !tbaa !47
  %magicptr = ptrtoint ptr %3 to i64
  switch i64 %magicptr, label %4 [
    i64 0, label %.loopexit
    i64 1, label %7
  ]

4:                                                ; preds = %1
  %5 = getelementptr inbounds nuw i8, ptr %3, i64 64
  %6 = load ptr, ptr %5, align 8, !tbaa !48
  br label %7

7:                                                ; preds = %1, %4
  %8 = phi ptr [ %6, %4 ], [ inttoptr (i64 1 to ptr), %1 ]
  %.not1416 = icmp eq ptr %3, inttoptr (i64 1 to ptr)
  br i1 %.not1416, label %.loopexit, label %.lr.ph.preheader

.lr.ph.preheader:                                 ; preds = %7
  %9 = getelementptr inbounds nuw i8, ptr %3, i64 64
  store ptr null, ptr %9, align 8, !tbaa !48
  %.not1519 = icmp eq ptr %8, inttoptr (i64 1 to ptr)
  br i1 %.not1519, label %.loopexit, label %.lr.ph

.lr.ph:                                           ; preds = %.lr.ph.preheader, %.lr.ph
  %.01820 = phi ptr [ %11, %.lr.ph ], [ %8, %.lr.ph.preheader ]
  %10 = getelementptr inbounds nuw i8, ptr %.01820, i64 64
  %11 = load ptr, ptr %10, align 8, !tbaa !48
  %12 = getelementptr inbounds nuw i8, ptr %.01820, i64 64
  store ptr null, ptr %12, align 8, !tbaa !48
  %.not15 = icmp eq ptr %11, inttoptr (i64 1 to ptr)
  br i1 %.not15, label %.loopexit, label %.lr.ph, !llvm.loop !52

.loopexit:                                        ; preds = %.lr.ph, %.lr.ph.preheader, %7, %1
  tail call void @llvm.memset.p0.i64(ptr noundef nonnull align 8 dereferenceable(16) %2, i8 0, i64 16, i1 false)
  ret void
}